target datalayout = "e-m:e-p270:32:32-p271:32:32-p272:64:64-i64:64-i128:128-f80:128-n8:16:32:64-S128"
target triple = "x86_64-pc-linux-gnu"

%struct.AVFilterContext = type { ptr, ptr, ptr, ptr, ptr, i32, ptr, ptr, i32, ptr, ptr, i32, i32, ptr, ptr, ptr, ptr, i32, ptr, i32, i32 }
%struct.FieldMatchContext = type { ptr, ptr, ptr, ptr, ptr, ptr, ptr, [2 x i32], [2 x i32], [2 x i32], i32, i32, i64, i64, i32, i32, i32, i32, i32, i32, i32, i64, double, i32, i32, i32, i32, i32, i32, i32, [4 x ptr], [4 x i32], [4 x ptr], [4 x i32], ptr, i32, i32, ptr }

; Function Attrs: cold nounwind optsize uwtable
define internal void @fieldmatch_uninit(ptr noundef %0) #0 {
  %2 = alloca ptr, align 8
  %3 = alloca ptr, align 8
  store ptr %0, ptr %2, align 8, !tbaa !4
  call void @llvm.lifetime.start.p0(i64 8, ptr %3) #10
  %4 = load ptr, ptr %2, align 8, !tbaa !4
  %5 = getelementptr inbounds nuw %struct.AVFilterContext, ptr %4, i32 0, i32 9
  %6 = load ptr, ptr %5, align 8, !tbaa !9
  store ptr %6, ptr %3, align 8, !tbaa !22
  %7 = load ptr, ptr %3, align 8, !tbaa !22
  %8 = getelementptr inbounds nuw %struct.FieldMatchContext, ptr %7, i32 0, i32 1
  %9 = load ptr, ptr %8, align 8, !tbaa !37
  %10 = load ptr, ptr %3, align 8, !tbaa !22
  %11 = getelementptr inbounds nuw %struct.FieldMatchContext, ptr %10, i32 0, i32 2
  %12 = load ptr, ptr %11, align 8, !tbaa !38
  %13 = icmp ne ptr %9, %12
  br i1 %13, label %14, label %17

14:                                               ; preds = %1
  %15 = load ptr, ptr %3, align 8, !tbaa !22
  %16 = getelementptr inbounds nuw %struct.FieldMatchContext, ptr %15, i32 0, i32 1
  call void @av_frame_free(ptr noundef %16)
  br label %17

17:                                               ; preds = %14, %1
  %18 = load ptr, ptr %3, align 8, !tbaa !22
  %19 = getelementptr inbounds nuw %struct.FieldMatchContext, ptr %18, i32 0, i32 3
  %20 = load ptr, ptr %19, align 8, !tbaa !39
  %21 = load ptr, ptr %3, align 8, !tbaa !22
  %22 = getelementptr inbounds nuw %struct.FieldMatchContext, ptr %21, i32 0, i32 2
  %23 = load ptr, ptr %22, align 8, !tbaa !38
  %24 = icmp ne ptr %20, %23
  br i1 %24, label %25, label %28

25:                                               ; preds = %17
  %26 = load ptr, ptr %3, align 8, !tbaa !22
  %27 = getelementptr inbounds nuw %struct.FieldMatchContext, ptr %26, i32 0, i32 3
  call void @av_frame_free(ptr noundef %27)
  br label %28

28:                                               ; preds = %25, %17
  %29 = load ptr, ptr %3, align 8, !tbaa !22
  %30 = getelementptr inbounds nuw %struct.FieldMatchContext, ptr %29, i32 0, i32 4
  %31 = load ptr, ptr %30, align 8, !tbaa !40
  %32 = load ptr, ptr %3, align 8, !tbaa !22
  %33 = getelementptr inbounds nuw %struct.FieldMatchContext, ptr %32, i32 0, i32 5
  %34 = load ptr, ptr %33, align 8, !tbaa !41
  %35 = icmp ne ptr %31, %34
  br i1 %35, label %36, label %39

36:                                               ; preds = %28
  %37 = load ptr, ptr %3, align 8, !tbaa !22
  %38 = getelementptr inbounds nuw %struct.FieldMatchContext, ptr %37, i32 0, i32 4
  call void @av_frame_free(ptr noundef %38)
  br label %39

39:                                               ; preds = %36, %28
  %40 = load ptr, ptr %3, align 8, !tbaa !22
  %41 = getelementptr inbounds nuw %struct.FieldMatchContext, ptr %40, i32 0, i32 6
  %42 = load ptr, ptr %41, align 8, !tbaa !42
  %43 = load ptr, ptr %3, align 8, !tbaa !22
  %44 = getelementptr inbounds nuw %struct.FieldMatchContext, ptr %43, i32 0, i32 5
  %45 = load ptr, ptr %44, align 8, !tbaa !41
  %46 = icmp ne ptr %42, %45
  br i1 %46, label %47, label %50

47:                                               ; preds = %39
  %48 = load ptr, ptr %3, align 8, !tbaa !22
  %49 = getelementptr inbounds nuw %struct.FieldMatchContext, ptr %48, i32 0, i32 6
  call void @av_frame_free(ptr noundef %49)
  br label %50

50:                                               ; preds = %47, %39
  %51 = load ptr, ptr %3, align 8, !tbaa !22
  %52 = getelementptr inbounds nuw %struct.FieldMatchContext, ptr %51, i32 0, i32 2
  call void @av_frame_free(ptr noundef %52)
  %53 = load ptr, ptr %3, align 8, !tbaa !22
  %54 = getelementptr inbounds nuw %struct.FieldMatchContext, ptr %53, i32 0, i32 5
  call void @av_frame_free(ptr noundef %54)
  %55 = load ptr, ptr %3, align 8, !tbaa !22
  %56 = getelementptr inbounds nuw %struct.FieldMatchContext, ptr %55, i32 0, i32 30
  %57 = getelementptr inbounds [4 x ptr], ptr %56, i64 0, i64 0
  call void @av_freep(ptr noundef %57)
  %58 = load ptr, ptr %3, align 8, !tbaa !22
  %59 = getelementptr inbounds nuw %struct.FieldMatchContext, ptr %58, i32 0, i32 32
  %60 = getelementptr inbounds [4 x ptr], ptr %59, i64 0, i64 0
  call void @av_freep(ptr noundef %60)
  %61 = load ptr, ptr %3, align 8, !tbaa !22
  %62 = getelementptr inbounds nuw %struct.FieldMatchContext, ptr %61, i32 0, i32 37
  call void @av_freep(ptr noundef %62)
  %63 = load ptr, ptr %3, align 8, !tbaa !22
  %64 = getelementptr inbounds nuw %struct.FieldMatchContext, ptr %63, i32 0, i32 34
  call void @av_freep(ptr noundef %64)
  call void @llvm.lifetime.end.p0(i64 8, ptr %3) #10
  ret void
}