; Function Attrs: cold nounwind optsize uwtable
define internal void @fieldmatch_uninit(ptr noundef readonly captures(none) %0) #0 {
  %2 = getelementptr inbounds nuw i8, ptr %0, i64 72
  %3 = load ptr, ptr %2, align 8, !tbaa !4
  %4 = getelementptr inbounds nuw i8, ptr %3, i64 8
  %5 = load ptr, ptr %4, align 8, !tbaa !32
  %6 = getelementptr inbounds nuw i8, ptr %3, i64 16
  %7 = load ptr, ptr %6, align 8, !tbaa !33
  %.not = icmp eq ptr %5, %7
  br i1 %.not, label %9, label %8

8:                                                ; preds = %1
  tail call void @av_frame_free(ptr noundef nonnull %4) #10
  %.pre = load ptr, ptr %6, align 8, !tbaa !33
  br label %9

9:                                                ; preds = %8, %1
  %10 = phi ptr [ %.pre, %8 ], [ %5, %1 ]
  %11 = getelementptr inbounds nuw i8, ptr %3, i64 24
  %12 = load ptr, ptr %11, align 8, !tbaa !34
  %.not19 = icmp eq ptr %12, %10
  br i1 %.not19, label %14, label %13

13:                                               ; preds = %9
  tail call void @av_frame_free(ptr noundef nonnull %11) #10
  br label %14

14:                                               ; preds = %13, %9
  %15 = getelementptr inbounds nuw i8, ptr %3, i64 32
  %16 = load ptr, ptr %15, align 8, !tbaa !35
  %17 = getelementptr inbounds nuw i8, ptr %3, i64 40
  %18 = load ptr, ptr %17, align 8, !tbaa !36
  %.not20 = icmp eq ptr %16, %18
  br i1 %.not20, label %20, label %19

19:                                               ; preds = %14
  tail call void @av_frame_free(ptr noundef nonnull %15) #10
  %.pre22 = load ptr, ptr %17, align 8, !tbaa !36
  br label %20

20:                                               ; preds = %19, %14
  %21 = phi ptr [ %.pre22, %19 ], [ %16, %14 ]
  %22 = getelementptr inbounds nuw i8, ptr %3, i64 48
  %23 = load ptr, ptr %22, align 8, !tbaa !37
  %.not21 = icmp eq ptr %23, %21
  br i1 %.not21, label %25, label %24

24:                                               ; preds = %20
  tail call void @av_frame_free(ptr noundef nonnull %22) #10
  br label %25

25:                                               ; preds = %24, %20
  tail call void @av_frame_free(ptr noundef nonnull %6) #10
  tail call void @av_frame_free(ptr noundef nonnull %17) #10
  %26 = getelementptr inbounds nuw i8, ptr %3, i64 184
  tail call void @av_freep(ptr noundef nonnull %26) #10
  %27 = getelementptr inbounds nuw i8, ptr %3, i64 232
  tail call void @av_freep(ptr noundef nonnull %27) #10
  %28 = getelementptr inbounds nuw i8, ptr %3, i64 296
  tail call void @av_freep(ptr noundef nonnull %28) #10
  %29 = getelementptr inbounds nuw i8, ptr %3, i64 280
  tail call void @av_freep(ptr noundef nonnull %29) #10
  ret void
}